target datalayout = "e-m:e-p270:32:32-p271:32:32-p272:64:64-i64:64-i128:128-f80:128-n8:16:32:64-S128"
target triple = "x86_64-pc-linux-gnu"

%struct.asn1_sctx_st = type { ptr, ptr, i64, i32, i32, ptr, ptr, i32, ptr, ptr, ptr }

@.str = private unnamed_addr constant [34 x i8] c"../openssl/crypto/asn1/tasn_scn.c\00", align 1

; Function Attrs: nounwind uwtable
define ptr @ASN1_SCTX_new(ptr noundef %0) #0 {
  %2 = alloca ptr, align 8
  %3 = alloca ptr, align 8
  %4 = alloca ptr, align 8
  %5 = alloca i32, align 4
  store ptr %0, ptr %3, align 8, !tbaa !3
  call void @llvm.lifetime.start.p0(i64 8, ptr %4) #3
  %6 = call noalias ptr @CRYPTO_zalloc(i64 noundef 80, ptr noundef @.str, i32 noundef 27)
  store ptr %6, ptr %4, align 8, !tbaa !7
  %7 = load ptr, ptr %4, align 8, !tbaa !7
  %8 = icmp eq ptr %7, null
  br i1 %8, label %9, label %10

9:                                                ; preds = %1
  store ptr null, ptr %2, align 8
  store i32 1, ptr %5, align 4
  br label %15

10:                                               ; preds = %1
  %11 = load ptr, ptr %3, align 8, !tbaa !3
  %12 = load ptr, ptr %4, align 8, !tbaa !7
  %13 = getelementptr inbounds nuw %struct.asn1_sctx_st, ptr %12, i32 0, i32 9
  store ptr %11, ptr %13, align 8, !tbaa !9
  %14 = load ptr, ptr %4, align 8, !tbaa !7
  store ptr %14, ptr %2, align 8
  store i32 1, ptr %5, align 4
  br label %15

15:                                               ; preds = %10, %9
  call void @llvm.lifetime.end.p0(i64 8, ptr %4) #3
  %16 = load ptr, ptr %2, align 8
  ret ptr %16
}

; Function Attrs: nocallback nofree nosync nounwind willreturn memory(argmem: readwrite)
declare void @llvm.lifetime.start.p0(i64 immarg, ptr captures(none)) #1

declare noalias ptr @CRYPTO_zalloc(i64 noundef, ptr noundef, i32 noundef) #2

; Function Attrs: nocallback nofree nosync nounwind willreturn memory(argmem: readwrite)
declare void @llvm.lifetime.end.p0(i64 immarg, ptr captures(none)) #1

; Function Attrs: nounwind uwtable
define void @ASN1_SCTX_free(ptr noundef %0) #0 {
  %2 = alloca ptr, align 8
  store ptr %0, ptr %2, align 8, !tbaa !7
  %3 = load ptr, ptr %2, align 8, !tbaa !7
  call void @CRYPTO_free(ptr noundef %3, ptr noundef @.str, i32 noundef 37)
  ret void
}

declare void @CRYPTO_free(ptr noundef, ptr noundef, i32 noundef) #2

; Function Attrs: nounwind uwtable
define ptr @ASN1_SCTX_get_item(ptr noundef %0) #0 {
  %2 = alloca ptr, align 8
  store ptr %0, ptr %2, align 8, !tbaa !7
  %3 = load ptr, ptr %2, align 8, !tbaa !7
  %4 = getelementptr inbounds nuw %struct.asn1_sctx_st, ptr %3, i32 0, i32 0
  %5 = load ptr, ptr %4, align 8, !tbaa !17
  ret ptr %5
}

; Function Attrs: nounwind uwtable
define ptr @ASN1_SCTX_get_template(ptr noundef %0) #0 {
  %2 = alloca ptr, align 8
  store ptr %0, ptr %2, align 8, !tbaa !7
  %3 = load ptr, ptr %2, align 8, !tbaa !7
  %4 = getelementptr inbounds nuw %struct.asn1_sctx_st, ptr %3, i32 0, i32 1
  %5 = load ptr, ptr %4, align 8, !tbaa !18
  ret ptr %5
}

; Function Attrs: nounwind uwtable
define i64 @ASN1_SCTX_get_flags(ptr noundef %0) #0 {
  %2 = alloca ptr, align 8
  store ptr %0, ptr %2, align 8, !tbaa !7
  %3 = load ptr, ptr %2, align 8, !tbaa !7
  %4 = getelementptr inbounds nuw %struct.asn1_sctx_st, ptr %3, i32 0, i32 2
  %5 = load i64, ptr %4, align 8, !tbaa !19
  ret i64 %5
}

; Function Attrs: nounwind uwtable
define void @ASN1_SCTX_set_app_data(ptr noundef %0, ptr noundef %1) #0 {
  %3 = alloca ptr, align 8
  %4 = alloca ptr, align 8
  store ptr %0, ptr %3, align 8, !tbaa !7
  store ptr %1, ptr %4, align 8, !tbaa !3
  %5 = load ptr, ptr %4, align 8, !tbaa !3
  %6 = load ptr, ptr %3, align 8, !tbaa !7
  %7 = getelementptr inbounds nuw %struct.asn1_sctx_st, ptr %6, i32 0, i32 10
  store ptr %5, ptr %7, align 8, !tbaa !20
  ret void
}

; Function Attrs: nounwind uwtable
define ptr @ASN1_SCTX_get_app_data(ptr noundef %0) #0 {
  %2 = alloca ptr, align 8
  store ptr %0, ptr %2, align 8, !tbaa !7
  %3 = load ptr, ptr %2, align 8, !tbaa !7
  %4 = getelementptr inbounds nuw %struct.asn1_sctx_st, ptr %3, i32 0, i32 10
  %5 = load ptr, ptr %4, align 8, !tbaa !20
  ret ptr %5
}


!llvm.module.flags = !{!0, !1, !2}

!0 = !{i32 1, !"wchar_size", i32 4}
!1 = !{i32 8, !"PIC Level", i32 2}
!2 = !{i32 7, !"uwtable", i32 2}
!3 = !{!4, !4, i64 0}
!4 = !{!"any pointer", !5, i64 0}
!5 = !{!"omnipotent char", !6, i64 0}
!6 = !{!"Simple C/C++ TBAA"}
!7 = !{!8, !8, i64 0}
!8 = !{!"p1 _ZTS12asn1_sctx_st", !4, i64 0}
!9 = !{!10, !4, i64 64}
!10 = !{!"asn1_sctx_st", !11, i64 0, !12, i64 8, !13, i64 16, !14, i64 24, !14, i64 28, !15, i64 32, !15, i64 40, !14, i64 48, !16, i64 56, !4, i64 64, !4, i64 72}
!11 = !{!"p1 _ZTS12ASN1_ITEM_st", !4, i64 0}
!12 = !{!"p1 _ZTS16ASN1_TEMPLATE_st", !4, i64 0}
!13 = !{!"long", !5, i64 0}
!14 = !{!"int", !5, i64 0}
!15 = !{!"p1 omnipotent char", !4, i64 0}
!16 = !{!"p2 _ZTS13ASN1_VALUE_st", !4, i64 0}
!17 = !{!10, !11, i64 0}
!18 = !{!10, !12, i64 8}
!19 = !{!10, !13, i64 16}
!20 = !{!10, !4, i64 72}
