; ModuleID = 'bench/openssl/original/tasn_scn.ll'
source_filename = "bench/openssl/original/tasn_scn.ll"
target datalayout = "e-m:e-p270:32:32-p271:32:32-p272:64:64-i64:64-i128:128-f80:128-n8:16:32:64-S128"
target triple = "x86_64-pc-linux-gnu"

@.str = private unnamed_addr constant [34 x i8] c"../openssl/crypto/asn1/tasn_scn.c\00", align 1

; Function Attrs: nounwind uwtable
define noalias ptr @ASN1_SCTX_new(ptr noundef %0) local_unnamed_addr #0 {
  %2 = tail call noalias ptr @CRYPTO_zalloc(i64 noundef 80, ptr noundef nonnull @.str, i32 noundef 27) #4
  %3 = icmp eq ptr %2, null
  br i1 %3, label %6, label %4

4:                                                ; preds = %1
  %5 = getelementptr inbounds nuw i8, ptr %2, i64 64
  store ptr %0, ptr %5, align 8, !tbaa !3
  br label %6

6:                                                ; preds = %1, %4
  ret ptr %2
}

declare noalias ptr @CRYPTO_zalloc(i64 noundef, ptr noundef, i32 noundef) local_unnamed_addr #1

; Function Attrs: nounwind uwtable
define void @ASN1_SCTX_free(ptr noundef %0) local_unnamed_addr #0 {
  tail call void @CRYPTO_free(ptr noundef %0, ptr noundef nonnull @.str, i32 noundef 37) #4
  ret void
}

declare void @CRYPTO_free(ptr noundef, ptr noundef, i32 noundef) local_unnamed_addr #1

; Function Attrs: mustprogress nofree norecurse nosync nounwind willreturn memory(argmem: read) uwtable
define ptr @ASN1_SCTX_get_item(ptr noundef readonly captures(none) %0) local_unnamed_addr #2 {
  %2 = load ptr, ptr %0, align 8, !tbaa !14
  ret ptr %2
}

; Function Attrs: mustprogress nofree norecurse nosync nounwind willreturn memory(argmem: read) uwtable
define ptr @ASN1_SCTX_get_template(ptr noundef readonly captures(none) %0) local_unnamed_addr #2 {
  %2 = getelementptr inbounds nuw i8, ptr %0, i64 8
  %3 = load ptr, ptr %2, align 8, !tbaa !15
  ret ptr %3
}

; Function Attrs: mustprogress nofree norecurse nosync nounwind willreturn memory(argmem: read) uwtable
define i64 @ASN1_SCTX_get_flags(ptr noundef readonly captures(none) %0) local_unnamed_addr #2 {
  %2 = getelementptr inbounds nuw i8, ptr %0, i64 16
  %3 = load i64, ptr %2, align 8, !tbaa !16
  ret i64 %3
}

; Function Attrs: mustprogress nofree norecurse nosync nounwind willreturn memory(argmem: write) uwtable
define void @ASN1_SCTX_set_app_data(ptr noundef writeonly captures(none) initializes((72, 80)) %0, ptr noundef %1) local_unnamed_addr #3 {
  %3 = getelementptr inbounds nuw i8, ptr %0, i64 72
  store ptr %1, ptr %3, align 8, !tbaa !17
  ret void
}

; Function Attrs: mustprogress nofree norecurse nosync nounwind willreturn memory(argmem: read) uwtable
define ptr @ASN1_SCTX_get_app_data(ptr noundef readonly captures(none) %0) local_unnamed_addr #2 {
  %2 = getelementptr inbounds nuw i8, ptr %0, i64 72
  %3 = load ptr, ptr %2, align 8, !tbaa !17
  ret ptr %3
}


!llvm.module.flags = !{!0, !1, !2}

!0 = !{i32 1, !"wchar_size", i32 4}
!1 = !{i32 8, !"PIC Level", i32 2}
!2 = !{i32 7, !"uwtable", i32 2}
!3 = !{!4, !6, i64 64}
!4 = !{!"asn1_sctx_st", !5, i64 0, !9, i64 8, !10, i64 16, !11, i64 24, !11, i64 28, !12, i64 32, !12, i64 40, !11, i64 48, !13, i64 56, !6, i64 64, !6, i64 72}
!5 = !{!"p1 _ZTS12ASN1_ITEM_st", !6, i64 0}
!6 = !{!"any pointer", !7, i64 0}
!7 = !{!"omnipotent char", !8, i64 0}
!8 = !{!"Simple C/C++ TBAA"}
!9 = !{!"p1 _ZTS16ASN1_TEMPLATE_st", !6, i64 0}
!10 = !{!"long", !7, i64 0}
!11 = !{!"int", !7, i64 0}
!12 = !{!"p1 omnipotent char", !6, i64 0}
!13 = !{!"p2 _ZTS13ASN1_VALUE_st", !6, i64 0}
!14 = !{!4, !5, i64 0}
!15 = !{!4, !9, i64 8}
!16 = !{!4, !10, i64 16}
!17 = !{!4, !6, i64 72}
